target datalayout = "e-m:e-p270:32:32-p271:32:32-p272:64:64-i64:64-i128:128-f80:128-n8:16:32:64-S128"
target triple = "x86_64-pc-linux-gnu"

%struct.aom_codec_priv = type { ptr, i64, %struct.anon }
%struct.anon = type { %struct.aom_fixed_buf, i32, i32, %struct.aom_codec_cx_pkt }
%struct.aom_fixed_buf = type { ptr, i64 }
%struct.aom_codec_cx_pkt = type { i32, %union.anon.0 }
%union.anon.0 = type { %struct.aom_psnr_pkt }
%struct.aom_psnr_pkt = type { [4 x i32], [4 x i64], [4 x double], [4 x i32], [4 x i64], [4 x double] }
%struct.aom_codec_alg_priv = type { %struct.aom_codec_priv, %struct.aom_codec_dec_cfg, %struct.aom_codec_stream_info, %struct.aom_image, i32, i32, i32, ptr, i32, i32, i32, i32, i32, i32, i32, i32, %struct.EXTERNAL_REFERENCES, i32, i32, i32, ptr, %struct.aom_image, [4 x %struct.aom_codec_frame_buffer], i64, i32, ptr, ptr, ptr, ptr }
%struct.aom_codec_dec_cfg = type { i32, i32, i32, i32 }
%struct.aom_codec_stream_info = type { i32, i32, i32, i32, i32, i32 }
%struct.EXTERNAL_REFERENCES = type { [128 x %struct.yv12_buffer_config], i32 }
%struct.yv12_buffer_config = type { %union.anon.2, %union.anon.4, %union.anon.6, %union.anon.8, %union.anon.10, %union.anon.12, i32, [3 x ptr], ptr, i32, ptr, i64, i32, i64, i32, i32, i32, i32, i32, i32, i8, i32, i32, i32, i32, i32, i32, ptr }
%union.anon.2 = type { %struct.anon.3 }
%struct.anon.3 = type { i32, i32 }
%union.anon.4 = type { %struct.anon.5 }
%struct.anon.5 = type { i32, i32 }
%union.anon.6 = type { %struct.anon.7 }
%struct.anon.7 = type { i32, i32 }
%union.anon.8 = type { %struct.anon.9 }
%struct.anon.9 = type { i32, i32 }
%union.anon.10 = type { %struct.anon.11 }
%struct.anon.11 = type { i32, i32 }
%union.anon.12 = type { %struct.anon.13 }
%struct.anon.13 = type { ptr, ptr, ptr }
%struct.aom_image = type { i32, i32, i32, i32, i32, i32, i32, i32, i32, i32, i32, i32, i32, i32, i32, i32, [3 x ptr], [3 x i32], i64, i32, i32, i32, ptr, ptr, i32, i32, ptr, ptr }
%struct.aom_codec_frame_buffer = type { ptr, i64, ptr }
%struct.__va_list_tag = type { i32, i32, ptr, ptr }

; Function Attrs: nounwind uwtable
define internal i32 @ctrl_set_operating_point(ptr noundef %0, ptr noundef %1) #0 {
  %3 = alloca ptr, align 8
  %4 = alloca ptr, align 8
  store ptr %0, ptr %3, align 8
  store ptr %1, ptr %4, align 8
  %5 = load ptr, ptr %4, align 8
  %6 = getelementptr inbounds nuw %struct.__va_list_tag, ptr %5, i32 0, i32 0
  %7 = load i32, ptr %6, align 8
  %8 = icmp ule i32 %7, 40
  br i1 %8, label %9, label %14

9:                                                ; preds = %2
  %10 = getelementptr inbounds nuw %struct.__va_list_tag, ptr %5, i32 0, i32 3
  %11 = load ptr, ptr %10, align 8
  %12 = getelementptr i8, ptr %11, i32 %7
  %13 = add i32 %7, 8
  store i32 %13, ptr %6, align 8
  br label %18

14:                                               ; preds = %2
  %15 = getelementptr inbounds nuw %struct.__va_list_tag, ptr %5, i32 0, i32 2
  %16 = load ptr, ptr %15, align 8
  %17 = getelementptr i8, ptr %16, i32 8
  store ptr %17, ptr %15, align 8
  br label %18

18:                                               ; preds = %14, %9
  %19 = phi ptr [ %12, %9 ], [ %16, %14 ]
  %20 = load i32, ptr %19, align 4
  %21 = load ptr, ptr %3, align 8
  %22 = getelementptr inbounds nuw %struct.aom_codec_alg_priv, ptr %21, i32 0, i32 18
  store i32 %20, ptr %22, align 4
  ret i32 0
}